target datalayout = "e-m:e-p270:32:32-p271:32:32-p272:64:64-i64:64-i128:128-f80:128-n8:16:32:64-S128"
target triple = "x86_64-pc-linux-gnu"

%struct.ssl_st = type { i32, i16, i16, ptr, ptr, ptr, ptr, ptr, i32, i32, ptr, ptr, i32, i32, ptr, ptr, ptr, ptr, ptr, ptr, ptr, ptr, i32, i32, [32 x i8], ptr, ptr, ptr, ptr, ptr, ptr, ptr, i64, %struct.crypto_ex_data_st, ptr, i32, i32, i32, i32, i16, ptr, i32, i64, ptr, ptr, ptr, ptr, ptr, ptr, i32, i32, ptr, ptr, i8, i8, i32 }
%struct.crypto_ex_data_st = type { ptr }
%struct.ssl3_state_st = type { [8 x i8], [8 x i8], [32 x i8], [32 x i8], i8, i8, %struct.ssl3_buffer_st, %struct.ssl3_buffer_st, %struct.ssl3_record_st, i8, i32, i32, i32, i32, ptr, ptr, %struct.env_md_ctx_st, %struct.env_md_ctx_st, i8, i32, [2 x i8], i32, i8, i8, ptr, ptr, ptr, %struct.anon, [64 x i8], i8, [64 x i8], i8, i32, i32, ptr, i64, ptr, i64, i8, [64 x i8] }
%struct.ssl3_buffer_st = type { ptr, i16, i16, i16 }
%struct.ssl3_record_st = type { i8, i16, ptr }
%struct.env_md_ctx_st = type { ptr, ptr, ptr, ptr }
%struct.anon = type { [64 x i8], i32, [64 x i8], i32, i64, i32, ptr, i32, i32, %union.anon, %union.anon.0, i8, i32, ptr, ptr, i64, ptr, i8, i8, i8, i8, i32, i8, ptr, i64, i8, ptr, i8, i8, i8, %struct.ssl_ecdh_ctx_st, ptr, i16 }
%union.anon = type { i32 }
%union.anon.0 = type { i16 }
%struct.ssl_ecdh_ctx_st = type { ptr, ptr }
%struct.ssl_aead_ctx_st = type { ptr, %struct.evp_aead_ctx_st, [12 x i8], i8, i8, i8, i8, i8, i8, i8 }
%struct.evp_aead_ctx_st = type { ptr, ptr }

@.str = private unnamed_addr constant [120 x i8] c"generated/home/dtcxzyw/WorkSpace/Projects/compilers/llvm-opt-benchmark/bench/libquic/libquic/boringssl/ssl/tls_record.c\00", align 1

; Function Attrs: nounwind uwtable
define internal i32 @ssl_needs_record_splitting(ptr noundef %0) #0 {
  %2 = alloca ptr, align 8
  store ptr %0, ptr %2, align 8, !tbaa !16
  %3 = load ptr, ptr %2, align 8, !tbaa !16
  %4 = getelementptr inbounds nuw %struct.ssl_st, ptr %3, i32 0, i32 14
  %5 = load ptr, ptr %4, align 8, !tbaa !44
  %6 = getelementptr inbounds nuw %struct.ssl3_state_st, ptr %5, i32 0, i32 25
  %7 = load ptr, ptr %6, align 8, !tbaa !59
  %8 = icmp ne ptr %7, null
  br i1 %8, label %9, label %31

9:                                                ; preds = %1
  %10 = load ptr, ptr %2, align 8, !tbaa !16
  %11 = call zeroext i16 @ssl3_protocol_version(ptr noundef %10)
  %12 = zext i16 %11 to i32
  %13 = icmp slt i32 %12, 770
  br i1 %13, label %14, label %31

14:                                               ; preds = %9
  %15 = load ptr, ptr %2, align 8, !tbaa !16
  %16 = getelementptr inbounds nuw %struct.ssl_st, ptr %15, i32 0, i32 36
  %17 = load i32, ptr %16, align 4, !tbaa !64
  %18 = zext i32 %17 to i64
  %19 = and i64 %18, 256
  %20 = icmp ne i64 %19, 0
  br i1 %20, label %21, label %31

21:                                               ; preds = %14
  %22 = load ptr, ptr %2, align 8, !tbaa !16
  %23 = getelementptr inbounds nuw %struct.ssl_st, ptr %22, i32 0, i32 14
  %24 = load ptr, ptr %23, align 8, !tbaa !44
  %25 = getelementptr inbounds nuw %struct.ssl3_state_st, ptr %24, i32 0, i32 25
  %26 = load ptr, ptr %25, align 8, !tbaa !59
  %27 = getelementptr inbounds nuw %struct.ssl_aead_ctx_st, ptr %26, i32 0, i32 0
  %28 = load ptr, ptr %27, align 8, !tbaa !60
  %29 = call i32 @SSL_CIPHER_is_block_cipher(ptr noundef %28)
  %30 = icmp ne i32 %29, 0
  br label %31

31:                                               ; preds = %21, %14, %9, %1
  %32 = phi i1 [ false, %14 ], [ false, %9 ], [ false, %1 ], [ %30, %21 ]
  %33 = zext i1 %32 to i32
  ret i32 %33
}

; Function Attrs: nounwind uwtable
define hidden i32 @tls_seal_record(ptr noundef %0, ptr noundef %1, ptr noundef %2, i64 noundef %3, i8 noundef zeroext %4, ptr noundef %5, i64 noundef %6) #0 {
  %8 = alloca i32, align 4
  %9 = alloca ptr, align 8
  %10 = alloca ptr, align 8
  %11 = alloca ptr, align 8
  %12 = alloca i64, align 8
  %13 = alloca i8, align 1
  %14 = alloca ptr, align 8
  %15 = alloca i64, align 8
  %16 = alloca i64, align 8
  %17 = alloca i32, align 4
  %18 = alloca i64, align 8
  store ptr %0, ptr %9, align 8, !tbaa !16
  store ptr %1, ptr %10, align 8, !tbaa !6
  store ptr %2, ptr %11, align 8, !tbaa !65
  store i64 %3, ptr %12, align 8, !tbaa !11
  store i8 %4, ptr %13, align 1, !tbaa !13
  store ptr %5, ptr %14, align 8, !tbaa !6
  store i64 %6, ptr %15, align 8, !tbaa !11
  call void @llvm.lifetime.start.p0(i64 8, ptr %16) #5
  store i64 0, ptr %16, align 8, !tbaa !11
  %19 = load i8, ptr %13, align 1, !tbaa !13
  %20 = zext i8 %19 to i32
  %21 = icmp eq i32 %20, 23
  br i1 %21, label %22, label %84

22:                                               ; preds = %7
  %23 = load i64, ptr %15, align 8, !tbaa !11
  %24 = icmp ugt i64 %23, 1
  br i1 %24, label %25, label %84

25:                                               ; preds = %22
  %26 = load ptr, ptr %9, align 8, !tbaa !16
  %27 = call i32 @ssl_needs_record_splitting(ptr noundef %26)
  %28 = icmp ne i32 %27, 0
  br i1 %28, label %29, label %84

29:                                               ; preds = %25
  %30 = load ptr, ptr %14, align 8, !tbaa !6
  %31 = getelementptr inbounds i8, ptr %30, i64 1
  %32 = load ptr, ptr %10, align 8, !tbaa !6
  %33 = icmp ule ptr %31, %32
  br i1 %33, label %34, label %41

34:                                               ; preds = %29
  %35 = load ptr, ptr %10, align 8, !tbaa !6
  %36 = load ptr, ptr %14, align 8, !tbaa !6
  %37 = load i64, ptr %15, align 8, !tbaa !11
  %38 = getelementptr inbounds nuw i8, ptr %36, i64 %37
  %39 = icmp ult ptr %35, %38
  br i1 %39, label %40, label %41

40:                                               ; preds = %34
  call void @ERR_put_error(i32 noundef 16, i32 noundef 0, i32 noundef 189, ptr noundef @.str, i32 noundef 330)
  store i32 0, ptr %8, align 4
  store i32 1, ptr %17, align 4
  br label %100

41:                                               ; preds = %34, %29
  call void @llvm.lifetime.start.p0(i64 8, ptr %18) #5
  %42 = load i64, ptr %12, align 8, !tbaa !11
  store i64 %42, ptr %18, align 8, !tbaa !11
  %43 = load ptr, ptr %10, align 8, !tbaa !6
  %44 = load ptr, ptr %14, align 8, !tbaa !6
  %45 = getelementptr inbounds i8, ptr %44, i64 1
  %46 = icmp ule ptr %43, %45
  br i1 %46, label %47, label %61

47:                                               ; preds = %41
  %48 = load ptr, ptr %14, align 8, !tbaa !6
  %49 = getelementptr inbounds i8, ptr %48, i64 1
  %50 = load ptr, ptr %10, align 8, !tbaa !6
  %51 = load i64, ptr %18, align 8, !tbaa !11
  %52 = getelementptr inbounds nuw i8, ptr %50, i64 %51
  %53 = icmp ult ptr %49, %52
  br i1 %53, label %54, label %61

54:                                               ; preds = %47
  %55 = load ptr, ptr %14, align 8, !tbaa !6
  %56 = getelementptr inbounds i8, ptr %55, i64 1
  %57 = load ptr, ptr %10, align 8, !tbaa !6
  %58 = ptrtoint ptr %56 to i64
  %59 = ptrtoint ptr %57 to i64
  %60 = sub i64 %58, %59
  store i64 %60, ptr %18, align 8, !tbaa !11
  br label %61

61:                                               ; preds = %54, %47, %41
  %62 = load ptr, ptr %9, align 8, !tbaa !16
  %63 = load ptr, ptr %10, align 8, !tbaa !6
  %64 = load i64, ptr %18, align 8, !tbaa !11
  %65 = load i8, ptr %13, align 1, !tbaa !13
  %66 = load ptr, ptr %14, align 8, !tbaa !6
  %67 = call i32 @do_seal_record(ptr noundef %62, ptr noundef %63, ptr noundef %16, i64 noundef %64, i8 noundef zeroext %65, ptr noundef %66, i64 noundef 1)
  %68 = icmp ne i32 %67, 0
  br i1 %68, label %70, label %69

69:                                               ; preds = %61
  store i32 0, ptr %8, align 4
  store i32 1, ptr %17, align 4
  br label %81

70:                                               ; preds = %61
  %71 = load ptr, ptr %14, align 8, !tbaa !6
  %72 = getelementptr inbounds nuw i8, ptr %71, i32 1
  store ptr %72, ptr %14, align 8, !tbaa !6
  %73 = load i64, ptr %15, align 8, !tbaa !11
  %74 = add i64 %73, -1
  store i64 %74, ptr %15, align 8, !tbaa !11
  %75 = load i64, ptr %16, align 8, !tbaa !11
  %76 = load ptr, ptr %10, align 8, !tbaa !6
  %77 = getelementptr inbounds nuw i8, ptr %76, i64 %75
  store ptr %77, ptr %10, align 8, !tbaa !6
  %78 = load i64, ptr %16, align 8, !tbaa !11
  %79 = load i64, ptr %12, align 8, !tbaa !11
  %80 = sub i64 %79, %78
  store i64 %80, ptr %12, align 8, !tbaa !11
  store i32 0, ptr %17, align 4
  br label %81

81:                                               ; preds = %70, %69
  call void @llvm.lifetime.end.p0(i64 8, ptr %18) #5
  %82 = load i32, ptr %17, align 4
  switch i32 %82, label %100 [
    i32 0, label %83
  ]

83:                                               ; preds = %81
  br label %84

84:                                               ; preds = %83, %25, %22, %7
  %85 = load ptr, ptr %9, align 8, !tbaa !16
  %86 = load ptr, ptr %10, align 8, !tbaa !6
  %87 = load ptr, ptr %11, align 8, !tbaa !65
  %88 = load i64, ptr %12, align 8, !tbaa !11
  %89 = load i8, ptr %13, align 1, !tbaa !13
  %90 = load ptr, ptr %14, align 8, !tbaa !6
  %91 = load i64, ptr %15, align 8, !tbaa !11
  %92 = call i32 @do_seal_record(ptr noundef %85, ptr noundef %86, ptr noundef %87, i64 noundef %88, i8 noundef zeroext %89, ptr noundef %90, i64 noundef %91)
  %93 = icmp ne i32 %92, 0
  br i1 %93, label %95, label %94

94:                                               ; preds = %84
  store i32 0, ptr %8, align 4
  store i32 1, ptr %17, align 4
  br label %100

95:                                               ; preds = %84
  %96 = load i64, ptr %16, align 8, !tbaa !11
  %97 = load ptr, ptr %11, align 8, !tbaa !65
  %98 = load i64, ptr %97, align 8, !tbaa !11
  %99 = add i64 %98, %96
  store i64 %99, ptr %97, align 8, !tbaa !11
  store i32 1, ptr %8, align 4
  store i32 1, ptr %17, align 4
  br label %100

100:                                              ; preds = %95, %94, %81, %40
  call void @llvm.lifetime.end.p0(i64 8, ptr %16) #5
  %101 = load i32, ptr %8, align 4
  ret i32 %101
}