; Function Attrs: nounwind uwtable
define hidden range(i32 0, 2) i32 @tls_seal_record(ptr noundef %0, ptr noundef %1, ptr noundef captures(none) %2, i64 noundef %3, i8 noundef zeroext %4, ptr noundef %5, i64 noundef %6) local_unnamed_addr #0 {
  %8 = alloca i64, align 8
  call void @llvm.lifetime.start.p0(i64 8, ptr nonnull %8) #4
  store i64 0, ptr %8, align 8, !tbaa !61
  %9 = icmp eq i8 %4, 23
  %10 = icmp ugt i64 %6, 1
  %or.cond = and i1 %9, %10
  br i1 %or.cond, label %11, label %ssl_needs_record_splitting.exit.thread

11:                                               ; preds = %7
  %12 = getelementptr inbounds nuw i8, ptr %0, i64 80
  %13 = load ptr, ptr %12, align 8, !tbaa !40
  %14 = getelementptr inbounds nuw i8, ptr %13, i64 272
  %15 = load ptr, ptr %14, align 8, !tbaa !55
  %.not.i = icmp eq ptr %15, null
  br i1 %.not.i, label %ssl_needs_record_splitting.exit.thread, label %16

16:                                               ; preds = %11
  %17 = tail call zeroext i16 @ssl3_protocol_version(ptr noundef nonnull %0) #4
  %18 = icmp ult i16 %17, 770
  br i1 %18, label %19, label %ssl_needs_record_splitting.exit.thread

19:                                               ; preds = %16
  %20 = getelementptr inbounds nuw i8, ptr %0, i64 268
  %21 = load i32, ptr %20, align 4, !tbaa !56
  %22 = and i32 %21, 256
  %.not4.i = icmp eq i32 %22, 0
  br i1 %.not4.i, label %ssl_needs_record_splitting.exit.thread, label %ssl_needs_record_splitting.exit

ssl_needs_record_splitting.exit:                  ; preds = %19
  %23 = load ptr, ptr %12, align 8, !tbaa !40
  %24 = getelementptr inbounds nuw i8, ptr %23, i64 272
  %25 = load ptr, ptr %24, align 8, !tbaa !55
  %26 = load ptr, ptr %25, align 8, !tbaa !57
  %27 = tail call i32 @SSL_CIPHER_is_block_cipher(ptr noundef %26) #4
  %.not62 = icmp eq i32 %27, 0
  br i1 %.not62, label %ssl_needs_record_splitting.exit.thread, label %28

28:                                               ; preds = %ssl_needs_record_splitting.exit
  %29 = getelementptr inbounds nuw i8, ptr %5, i64 1
  %.not49 = icmp ule ptr %29, %1
  %30 = getelementptr inbounds nuw i8, ptr %5, i64 %6
  %31 = icmp ult ptr %1, %30
  %or.cond54 = select i1 %.not49, i1 %31, i1 false
  br i1 %or.cond54, label %32, label %33

32:                                               ; preds = %28
  tail call void @ERR_put_error(i32 noundef 16, i32 noundef 0, i32 noundef 189, ptr noundef nonnull @.str, i32 noundef 330) #4
  br label %.thread

33:                                               ; preds = %28
  %.not50 = icmp ule ptr %1, %29
  %34 = getelementptr inbounds nuw i8, ptr %1, i64 %3
  %35 = icmp ult ptr %29, %34
  %or.cond56 = select i1 %.not50, i1 %35, i1 false
  %36 = ptrtoint ptr %29 to i64
  %37 = ptrtoint ptr %1 to i64
  %38 = sub i64 %36, %37
  %.0 = select i1 %or.cond56, i64 %38, i64 %3
  %39 = call fastcc i32 @do_seal_record(ptr noundef nonnull %0, ptr noundef %1, ptr noundef nonnull %8, i64 noundef %.0, i8 noundef zeroext 23, ptr noundef %5, i64 noundef 1)
  %.not51.not = icmp eq i32 %39, 0
  br i1 %.not51.not, label %.thread, label %40

40:                                               ; preds = %33
  %41 = add i64 %6, -1
  %42 = load i64, ptr %8, align 8, !tbaa !61
  %43 = getelementptr inbounds nuw i8, ptr %1, i64 %42
  %44 = sub i64 %3, %42
  br label %ssl_needs_record_splitting.exit.thread

ssl_needs_record_splitting.exit.thread:           ; preds = %11, %16, %19, %40, %ssl_needs_record_splitting.exit, %7
  %45 = phi i64 [ %42, %40 ], [ 0, %ssl_needs_record_splitting.exit ], [ 0, %7 ], [ 0, %19 ], [ 0, %16 ], [ 0, %11 ]
  %.043 = phi ptr [ %43, %40 ], [ %1, %ssl_needs_record_splitting.exit ], [ %1, %7 ], [ %1, %19 ], [ %1, %16 ], [ %1, %11 ]
  %.041 = phi i64 [ %44, %40 ], [ %3, %ssl_needs_record_splitting.exit ], [ %3, %7 ], [ %3, %19 ], [ %3, %16 ], [ %3, %11 ]
  %.037 = phi ptr [ %29, %40 ], [ %5, %ssl_needs_record_splitting.exit ], [ %5, %7 ], [ %5, %19 ], [ %5, %16 ], [ %5, %11 ]
  %.036 = phi i64 [ %41, %40 ], [ %6, %ssl_needs_record_splitting.exit ], [ %6, %7 ], [ %6, %19 ], [ %6, %16 ], [ %6, %11 ]
  %46 = tail call fastcc i32 @do_seal_record(ptr noundef %0, ptr noundef %.043, ptr noundef %2, i64 noundef %.041, i8 noundef zeroext %4, ptr noundef %.037, i64 noundef %.036)
  %.not52 = icmp eq i32 %46, 0
  br i1 %.not52, label %.thread, label %47

47:                                               ; preds = %ssl_needs_record_splitting.exit.thread
  %48 = load i64, ptr %2, align 8, !tbaa !61
  %49 = add i64 %48, %45
  store i64 %49, ptr %2, align 8, !tbaa !61
  br label %.thread

.thread:                                          ; preds = %33, %ssl_needs_record_splitting.exit.thread, %47, %32
  %.039 = phi i32 [ 0, %32 ], [ 1, %47 ], [ 0, %ssl_needs_record_splitting.exit.thread ], [ 0, %33 ]
  call void @llvm.lifetime.end.p0(i64 8, ptr nonnull %8) #4
  ret i32 %.039
}